target datalayout = "e-m:e-p270:32:32-p271:32:32-p272:64:64-i64:64-i128:128-f80:128-n8:16:32:64-S128"
target triple = "x86_64-pc-linux-gnu"

%"struct.vas::KalmanFilterNoOpencv::kalmanfilter1d32i" = type { [2 x i32], [2 x [2 x i32]], [2 x [2 x i32]], i32, [2 x [2 x i32]], [2 x i32] }

@__const._ZN3vas20KalmanFilterNoOpencv31kalmanfilter1d32i_predict_phaseEPNS0_17kalmanfilter1d32iEf.F = private unnamed_addr constant [2 x [2 x float]] [[2 x float] [float 1.000000e+00, float 1.000000e+00], [2 x float] [float 0.000000e+00, float 1.000000e+00]], align 16
@__const._ZN3vas20KalmanFilterNoOpencv31kalmanfilter1d32i_predict_phaseEPNS0_17kalmanfilter1d32iEf.A = private unnamed_addr constant [2 x [2 x float]] [[2 x float] [float 1.000000e+00, float 1.000000e+00], [2 x float] [float 0.000000e+00, float 1.000000e+00]], align 16

; Function Attrs: mustprogress nounwind uwtable
define internal void @_ZN3vasL14add_matmat_32iEPA2_iS1_S1_(ptr noundef %0, ptr noundef %1, ptr noundef %2) #2 {
  %4 = alloca ptr, align 8
  %5 = alloca ptr, align 8
  %6 = alloca ptr, align 8
  store ptr %0, ptr %4, align 8, !tbaa !25
  store ptr %1, ptr %5, align 8, !tbaa !25
  store ptr %2, ptr %6, align 8, !tbaa !25
  %7 = load ptr, ptr %5, align 8, !tbaa !25
  %8 = getelementptr inbounds [2 x i32], ptr %7, i64 0
  %9 = getelementptr inbounds [2 x i32], ptr %8, i64 0, i64 0
  %10 = load i32, ptr %9, align 4, !tbaa !17
  %11 = load ptr, ptr %6, align 8, !tbaa !25
  %12 = getelementptr inbounds [2 x i32], ptr %11, i64 0
  %13 = getelementptr inbounds [2 x i32], ptr %12, i64 0, i64 0
  %14 = load i32, ptr %13, align 4, !tbaa !17
  %15 = add nsw i32 %10, %14
  %16 = load ptr, ptr %4, align 8, !tbaa !25
  %17 = getelementptr inbounds [2 x i32], ptr %16, i64 0
  %18 = getelementptr inbounds [2 x i32], ptr %17, i64 0, i64 0
  store i32 %15, ptr %18, align 4, !tbaa !17
  %19 = load ptr, ptr %5, align 8, !tbaa !25
  %20 = getelementptr inbounds [2 x i32], ptr %19, i64 0
  %21 = getelementptr inbounds [2 x i32], ptr %20, i64 0, i64 1
  %22 = load i32, ptr %21, align 4, !tbaa !17
  %23 = load ptr, ptr %6, align 8, !tbaa !25
  %24 = getelementptr inbounds [2 x i32], ptr %23, i64 0
  %25 = getelementptr inbounds [2 x i32], ptr %24, i64 0, i64 1
  %26 = load i32, ptr %25, align 4, !tbaa !17
  %27 = add nsw i32 %22, %26
  %28 = load ptr, ptr %4, align 8, !tbaa !25
  %29 = getelementptr inbounds [2 x i32], ptr %28, i64 0
  %30 = getelementptr inbounds [2 x i32], ptr %29, i64 0, i64 1
  store i32 %27, ptr %30, align 4, !tbaa !17
  %31 = load ptr, ptr %5, align 8, !tbaa !25
  %32 = getelementptr inbounds [2 x i32], ptr %31, i64 1
  %33 = getelementptr inbounds [2 x i32], ptr %32, i64 0, i64 0
  %34 = load i32, ptr %33, align 4, !tbaa !17
  %35 = load ptr, ptr %6, align 8, !tbaa !25
  %36 = getelementptr inbounds [2 x i32], ptr %35, i64 1
  %37 = getelementptr inbounds [2 x i32], ptr %36, i64 0, i64 0
  %38 = load i32, ptr %37, align 4, !tbaa !17
  %39 = add nsw i32 %34, %38
  %40 = load ptr, ptr %4, align 8, !tbaa !25
  %41 = getelementptr inbounds [2 x i32], ptr %40, i64 1
  %42 = getelementptr inbounds [2 x i32], ptr %41, i64 0, i64 0
  store i32 %39, ptr %42, align 4, !tbaa !17
  %43 = load ptr, ptr %5, align 8, !tbaa !25
  %44 = getelementptr inbounds [2 x i32], ptr %43, i64 1
  %45 = getelementptr inbounds [2 x i32], ptr %44, i64 0, i64 1
  %46 = load i32, ptr %45, align 4, !tbaa !17
  %47 = load ptr, ptr %6, align 8, !tbaa !25
  %48 = getelementptr inbounds [2 x i32], ptr %47, i64 1
  %49 = getelementptr inbounds [2 x i32], ptr %48, i64 0, i64 1
  %50 = load i32, ptr %49, align 4, !tbaa !17
  %51 = add nsw i32 %46, %50
  %52 = load ptr, ptr %4, align 8, !tbaa !25
  %53 = getelementptr inbounds [2 x i32], ptr %52, i64 1
  %54 = getelementptr inbounds [2 x i32], ptr %53, i64 0, i64 1
  store i32 %51, ptr %54, align 4, !tbaa !17
  ret void
}

; Function Attrs: mustprogress nounwind uwtable
define internal void @_ZN3vasL15mul_matmatT_32fEPA2_iS1_PA2_f(ptr noundef %0, ptr noundef %1, ptr noundef %2) #2 {
  %4 = alloca ptr, align 8
  %5 = alloca ptr, align 8
  %6 = alloca ptr, align 8
  store ptr %0, ptr %4, align 8, !tbaa !25
  store ptr %1, ptr %5, align 8, !tbaa !25
  store ptr %2, ptr %6, align 8, !tbaa !33
  %7 = load ptr, ptr %5, align 8, !tbaa !25
  %8 = getelementptr inbounds [2 x i32], ptr %7, i64 0
  %9 = getelementptr inbounds [2 x i32], ptr %8, i64 0, i64 0
  %10 = load i32, ptr %9, align 4, !tbaa !17
  %11 = sitofp i32 %10 to float
  %12 = load ptr, ptr %6, align 8, !tbaa !33
  %13 = getelementptr inbounds [2 x float], ptr %12, i64 0
  %14 = getelementptr inbounds [2 x float], ptr %13, i64 0, i64 0
  %15 = load float, ptr %14, align 4, !tbaa !27
  %16 = load ptr, ptr %5, align 8, !tbaa !25
  %17 = getelementptr inbounds [2 x i32], ptr %16, i64 0
  %18 = getelementptr inbounds [2 x i32], ptr %17, i64 0, i64 1
  %19 = load i32, ptr %18, align 4, !tbaa !17
  %20 = sitofp i32 %19 to float
  %21 = load ptr, ptr %6, align 8, !tbaa !33
  %22 = getelementptr inbounds [2 x float], ptr %21, i64 0
  %23 = getelementptr inbounds [2 x float], ptr %22, i64 0, i64 1
  %24 = load float, ptr %23, align 4, !tbaa !27
  %25 = fmul float %20, %24
  %26 = call float @llvm.fmuladd.f32(float %11, float %15, float %25)
  %27 = fptosi float %26 to i32
  %28 = load ptr, ptr %4, align 8, !tbaa !25
  %29 = getelementptr inbounds [2 x i32], ptr %28, i64 0
  %30 = getelementptr inbounds [2 x i32], ptr %29, i64 0, i64 0
  store i32 %27, ptr %30, align 4, !tbaa !17
  %31 = load ptr, ptr %5, align 8, !tbaa !25
  %32 = getelementptr inbounds [2 x i32], ptr %31, i64 0
  %33 = getelementptr inbounds [2 x i32], ptr %32, i64 0, i64 0
  %34 = load i32, ptr %33, align 4, !tbaa !17
  %35 = sitofp i32 %34 to float
  %36 = load ptr, ptr %6, align 8, !tbaa !33
  %37 = getelementptr inbounds [2 x float], ptr %36, i64 1
  %38 = getelementptr inbounds [2 x float], ptr %37, i64 0, i64 0
  %39 = load float, ptr %38, align 4, !tbaa !27
  %40 = load ptr, ptr %5, align 8, !tbaa !25
  %41 = getelementptr inbounds [2 x i32], ptr %40, i64 0
  %42 = getelementptr inbounds [2 x i32], ptr %41, i64 0, i64 1
  %43 = load i32, ptr %42, align 4, !tbaa !17
  %44 = sitofp i32 %43 to float
  %45 = load ptr, ptr %6, align 8, !tbaa !33
  %46 = getelementptr inbounds [2 x float], ptr %45, i64 1
  %47 = getelementptr inbounds [2 x float], ptr %46, i64 0, i64 1
  %48 = load float, ptr %47, align 4, !tbaa !27
  %49 = fmul float %44, %48
  %50 = call float @llvm.fmuladd.f32(float %35, float %39, float %49)
  %51 = fptosi float %50 to i32
  %52 = load ptr, ptr %4, align 8, !tbaa !25
  %53 = getelementptr inbounds [2 x i32], ptr %52, i64 0
  %54 = getelementptr inbounds [2 x i32], ptr %53, i64 0, i64 1
  store i32 %51, ptr %54, align 4, !tbaa !17
  %55 = load ptr, ptr %5, align 8, !tbaa !25
  %56 = getelementptr inbounds [2 x i32], ptr %55, i64 1
  %57 = getelementptr inbounds [2 x i32], ptr %56, i64 0, i64 0
  %58 = load i32, ptr %57, align 4, !tbaa !17
  %59 = sitofp i32 %58 to float
  %60 = load ptr, ptr %6, align 8, !tbaa !33
  %61 = getelementptr inbounds [2 x float], ptr %60, i64 0
  %62 = getelementptr inbounds [2 x float], ptr %61, i64 0, i64 0
  %63 = load float, ptr %62, align 4, !tbaa !27
  %64 = load ptr, ptr %5, align 8, !tbaa !25
  %65 = getelementptr inbounds [2 x i32], ptr %64, i64 1
  %66 = getelementptr inbounds [2 x i32], ptr %65, i64 0, i64 1
  %67 = load i32, ptr %66, align 4, !tbaa !17
  %68 = sitofp i32 %67 to float
  %69 = load ptr, ptr %6, align 8, !tbaa !33
  %70 = getelementptr inbounds [2 x float], ptr %69, i64 0
  %71 = getelementptr inbounds [2 x float], ptr %70, i64 0, i64 1
  %72 = load float, ptr %71, align 4, !tbaa !27
  %73 = fmul float %68, %72
  %74 = call float @llvm.fmuladd.f32(float %59, float %63, float %73)
  %75 = fptosi float %74 to i32
  %76 = load ptr, ptr %4, align 8, !tbaa !25
  %77 = getelementptr inbounds [2 x i32], ptr %76, i64 1
  %78 = getelementptr inbounds [2 x i32], ptr %77, i64 0, i64 0
  store i32 %75, ptr %78, align 4, !tbaa !17
  %79 = load ptr, ptr %5, align 8, !tbaa !25
  %80 = getelementptr inbounds [2 x i32], ptr %79, i64 1
  %81 = getelementptr inbounds [2 x i32], ptr %80, i64 0, i64 0
  %82 = load i32, ptr %81, align 4, !tbaa !17
  %83 = sitofp i32 %82 to float
  %84 = load ptr, ptr %6, align 8, !tbaa !33
  %85 = getelementptr inbounds [2 x float], ptr %84, i64 1
  %86 = getelementptr inbounds [2 x float], ptr %85, i64 0, i64 0
  %87 = load float, ptr %86, align 4, !tbaa !27
  %88 = load ptr, ptr %5, align 8, !tbaa !25
  %89 = getelementptr inbounds [2 x i32], ptr %88, i64 1
  %90 = getelementptr inbounds [2 x i32], ptr %89, i64 0, i64 1
  %91 = load i32, ptr %90, align 4, !tbaa !17
  %92 = sitofp i32 %91 to float
  %93 = load ptr, ptr %6, align 8, !tbaa !33
  %94 = getelementptr inbounds [2 x float], ptr %93, i64 1
  %95 = getelementptr inbounds [2 x float], ptr %94, i64 0, i64 1
  %96 = load float, ptr %95, align 4, !tbaa !27
  %97 = fmul float %92, %96
  %98 = call float @llvm.fmuladd.f32(float %83, float %87, float %97)
  %99 = fptosi float %98 to i32
  %100 = load ptr, ptr %4, align 8, !tbaa !25
  %101 = getelementptr inbounds [2 x i32], ptr %100, i64 1
  %102 = getelementptr inbounds [2 x i32], ptr %101, i64 0, i64 1
  store i32 %99, ptr %102, align 4, !tbaa !17
  ret void
}

; Function Attrs: mustprogress nounwind uwtable
define internal void @_ZN3vasL14mul_matmat_32fEPA2_iPA2_fS1_(ptr noundef %0, ptr noundef %1, ptr noundef %2) #2 {
  %4 = alloca ptr, align 8
  %5 = alloca ptr, align 8
  %6 = alloca ptr, align 8
  store ptr %0, ptr %4, align 8, !tbaa !25
  store ptr %1, ptr %5, align 8, !tbaa !33
  store ptr %2, ptr %6, align 8, !tbaa !25
  %7 = load ptr, ptr %5, align 8, !tbaa !33
  %8 = getelementptr inbounds [2 x float], ptr %7, i64 0
  %9 = getelementptr inbounds [2 x float], ptr %8, i64 0, i64 0
  %10 = load float, ptr %9, align 4, !tbaa !27
  %11 = load ptr, ptr %6, align 8, !tbaa !25
  %12 = getelementptr inbounds [2 x i32], ptr %11, i64 0
  %13 = getelementptr inbounds [2 x i32], ptr %12, i64 0, i64 0
  %14 = load i32, ptr %13, align 4, !tbaa !17
  %15 = sitofp i32 %14 to float
  %16 = load ptr, ptr %5, align 8, !tbaa !33
  %17 = getelementptr inbounds [2 x float], ptr %16, i64 0
  %18 = getelementptr inbounds [2 x float], ptr %17, i64 0, i64 1
  %19 = load float, ptr %18, align 4, !tbaa !27
  %20 = load ptr, ptr %6, align 8, !tbaa !25
  %21 = getelementptr inbounds [2 x i32], ptr %20, i64 1
  %22 = getelementptr inbounds [2 x i32], ptr %21, i64 0, i64 0
  %23 = load i32, ptr %22, align 4, !tbaa !17
  %24 = sitofp i32 %23 to float
  %25 = fmul float %19, %24
  %26 = call float @llvm.fmuladd.f32(float %10, float %15, float %25)
  %27 = fptosi float %26 to i32
  %28 = load ptr, ptr %4, align 8, !tbaa !25
  %29 = getelementptr inbounds [2 x i32], ptr %28, i64 0
  %30 = getelementptr inbounds [2 x i32], ptr %29, i64 0, i64 0
  store i32 %27, ptr %30, align 4, !tbaa !17
  %31 = load ptr, ptr %5, align 8, !tbaa !33
  %32 = getelementptr inbounds [2 x float], ptr %31, i64 0
  %33 = getelementptr inbounds [2 x float], ptr %32, i64 0, i64 0
  %34 = load float, ptr %33, align 4, !tbaa !27
  %35 = load ptr, ptr %6, align 8, !tbaa !25
  %36 = getelementptr inbounds [2 x i32], ptr %35, i64 0
  %37 = getelementptr inbounds [2 x i32], ptr %36, i64 0, i64 1
  %38 = load i32, ptr %37, align 4, !tbaa !17
  %39 = sitofp i32 %38 to float
  %40 = load ptr, ptr %5, align 8, !tbaa !33
  %41 = getelementptr inbounds [2 x float], ptr %40, i64 0
  %42 = getelementptr inbounds [2 x float], ptr %41, i64 0, i64 1
  %43 = load float, ptr %42, align 4, !tbaa !27
  %44 = load ptr, ptr %6, align 8, !tbaa !25
  %45 = getelementptr inbounds [2 x i32], ptr %44, i64 1
  %46 = getelementptr inbounds [2 x i32], ptr %45, i64 0, i64 1
  %47 = load i32, ptr %46, align 4, !tbaa !17
  %48 = sitofp i32 %47 to float
  %49 = fmul float %43, %48
  %50 = call float @llvm.fmuladd.f32(float %34, float %39, float %49)
  %51 = fptosi float %50 to i32
  %52 = load ptr, ptr %4, align 8, !tbaa !25
  %53 = getelementptr inbounds [2 x i32], ptr %52, i64 0
  %54 = getelementptr inbounds [2 x i32], ptr %53, i64 0, i64 1
  store i32 %51, ptr %54, align 4, !tbaa !17
  %55 = load ptr, ptr %5, align 8, !tbaa !33
  %56 = getelementptr inbounds [2 x float], ptr %55, i64 1
  %57 = getelementptr inbounds [2 x float], ptr %56, i64 0, i64 1
  %58 = load float, ptr %57, align 4, !tbaa !27
  %59 = load ptr, ptr %6, align 8, !tbaa !25
  %60 = getelementptr inbounds [2 x i32], ptr %59, i64 1
  %61 = getelementptr inbounds [2 x i32], ptr %60, i64 0, i64 0
  %62 = load i32, ptr %61, align 4, !tbaa !17
  %63 = sitofp i32 %62 to float
  %64 = fmul float %58, %63
  %65 = fptosi float %64 to i32
  %66 = load ptr, ptr %4, align 8, !tbaa !25
  %67 = getelementptr inbounds [2 x i32], ptr %66, i64 1
  %68 = getelementptr inbounds [2 x i32], ptr %67, i64 0, i64 0
  store i32 %65, ptr %68, align 4, !tbaa !17
  %69 = load ptr, ptr %5, align 8, !tbaa !33
  %70 = getelementptr inbounds [2 x float], ptr %69, i64 1
  %71 = getelementptr inbounds [2 x float], ptr %70, i64 0, i64 1
  %72 = load float, ptr %71, align 4, !tbaa !27
  %73 = load ptr, ptr %6, align 8, !tbaa !25
  %74 = getelementptr inbounds [2 x i32], ptr %73, i64 1
  %75 = getelementptr inbounds [2 x i32], ptr %74, i64 0, i64 1
  %76 = load i32, ptr %75, align 4, !tbaa !17
  %77 = sitofp i32 %76 to float
  %78 = fmul float %72, %77
  %79 = fptosi float %78 to i32
  %80 = load ptr, ptr %4, align 8, !tbaa !25
  %81 = getelementptr inbounds [2 x i32], ptr %80, i64 1
  %82 = getelementptr inbounds [2 x i32], ptr %81, i64 0, i64 1
  store i32 %79, ptr %82, align 4, !tbaa !17
  ret void
}

; Function Attrs: mustprogress nounwind uwtable
define internal void @_ZN3vasL14mul_matvec_32fEPiPA2_fS0_(ptr noundef %0, ptr noundef %1, ptr noundef %2) #2 {
  %4 = alloca ptr, align 8
  %5 = alloca ptr, align 8
  %6 = alloca ptr, align 8
  store ptr %0, ptr %4, align 8, !tbaa !25
  store ptr %1, ptr %5, align 8, !tbaa !33
  store ptr %2, ptr %6, align 8, !tbaa !25
  %7 = load ptr, ptr %5, align 8, !tbaa !33
  %8 = getelementptr inbounds [2 x float], ptr %7, i64 0
  %9 = getelementptr inbounds [2 x float], ptr %8, i64 0, i64 0
  %10 = load float, ptr %9, align 4, !tbaa !27
  %11 = load ptr, ptr %6, align 8, !tbaa !25
  %12 = getelementptr inbounds i32, ptr %11, i64 0
  %13 = load i32, ptr %12, align 4, !tbaa !17
  %14 = sitofp i32 %13 to float
  %15 = load ptr, ptr %5, align 8, !tbaa !33
  %16 = getelementptr inbounds [2 x float], ptr %15, i64 0
  %17 = getelementptr inbounds [2 x float], ptr %16, i64 0, i64 1
  %18 = load float, ptr %17, align 4, !tbaa !27
  %19 = load ptr, ptr %6, align 8, !tbaa !25
  %20 = getelementptr inbounds i32, ptr %19, i64 1
  %21 = load i32, ptr %20, align 4, !tbaa !17
  %22 = sitofp i32 %21 to float
  %23 = fmul float %18, %22
  %24 = call float @llvm.fmuladd.f32(float %10, float %14, float %23)
  %25 = fptosi float %24 to i32
  %26 = load ptr, ptr %4, align 8, !tbaa !25
  %27 = getelementptr inbounds i32, ptr %26, i64 0
  store i32 %25, ptr %27, align 4, !tbaa !17
  %28 = load ptr, ptr %5, align 8, !tbaa !33
  %29 = getelementptr inbounds [2 x float], ptr %28, i64 1
  %30 = getelementptr inbounds [2 x float], ptr %29, i64 0, i64 0
  %31 = load float, ptr %30, align 4, !tbaa !27
  %32 = load ptr, ptr %6, align 8, !tbaa !25
  %33 = getelementptr inbounds i32, ptr %32, i64 0
  %34 = load i32, ptr %33, align 4, !tbaa !17
  %35 = sitofp i32 %34 to float
  %36 = load ptr, ptr %5, align 8, !tbaa !33
  %37 = getelementptr inbounds [2 x float], ptr %36, i64 1
  %38 = getelementptr inbounds [2 x float], ptr %37, i64 0, i64 1
  %39 = load float, ptr %38, align 4, !tbaa !27
  %40 = load ptr, ptr %6, align 8, !tbaa !25
  %41 = getelementptr inbounds i32, ptr %40, i64 1
  %42 = load i32, ptr %41, align 4, !tbaa !17
  %43 = sitofp i32 %42 to float
  %44 = fmul float %39, %43
  %45 = call float @llvm.fmuladd.f32(float %31, float %35, float %44)
  %46 = fptosi float %45 to i32
  %47 = load ptr, ptr %4, align 8, !tbaa !25
  %48 = getelementptr inbounds i32, ptr %47, i64 1
  store i32 %46, ptr %48, align 4, !tbaa !17
  ret void
}

; Function Attrs: mustprogress uwtable
define hidden void @_ZN3vas20KalmanFilterNoOpencv31kalmanfilter1d32i_predict_phaseEPNS0_17kalmanfilter1d32iEf(ptr noundef nonnull align 4 dereferenceable(284) %0, ptr noundef %1, float noundef %2) #0 align 2 {
  %4 = alloca ptr, align 8
  %5 = alloca ptr, align 8
  %6 = alloca float, align 4
  %7 = alloca [2 x [2 x float]], align 16
  %8 = alloca [2 x [2 x float]], align 16
  %9 = alloca [2 x [2 x i32]], align 16
  %10 = alloca [2 x [2 x i32]], align 16
  %11 = alloca float, align 4
  %12 = alloca float, align 4
  store ptr %0, ptr %4, align 8, !tbaa !3
  store ptr %1, ptr %5, align 8, !tbaa !23
  store float %2, ptr %6, align 4, !tbaa !27
  call void @llvm.lifetime.start.p0(i64 16, ptr %7) #7
  call void @llvm.memcpy.p0.p0.i64(ptr align 16 %7, ptr align 16 @__const._ZN3vas20KalmanFilterNoOpencv31kalmanfilter1d32i_predict_phaseEPNS0_17kalmanfilter1d32iEf.F, i64 16, i1 false)
  call void @llvm.lifetime.start.p0(i64 16, ptr %8) #7
  call void @llvm.memcpy.p0.p0.i64(ptr align 16 %8, ptr align 16 @__const._ZN3vas20KalmanFilterNoOpencv31kalmanfilter1d32i_predict_phaseEPNS0_17kalmanfilter1d32iEf.A, i64 16, i1 false)
  call void @llvm.lifetime.start.p0(i64 16, ptr %9) #7
  call void @llvm.lifetime.start.p0(i64 16, ptr %10) #7
  call void @llvm.lifetime.start.p0(i64 4, ptr %11) #7
  store float 8.000000e+00, ptr %11, align 4, !tbaa !27
  call void @llvm.lifetime.start.p0(i64 4, ptr %12) #7
  %13 = load float, ptr %6, align 4, !tbaa !27
  %14 = load float, ptr %11, align 4, !tbaa !27
  %15 = fmul float %13, %14
  store float %15, ptr %12, align 4, !tbaa !27
  %16 = load float, ptr %12, align 4, !tbaa !27
  %17 = getelementptr inbounds [2 x [2 x float]], ptr %7, i64 0, i64 0
  %18 = getelementptr inbounds [2 x float], ptr %17, i64 0, i64 1
  store float %16, ptr %18, align 4, !tbaa !27
  %19 = load ptr, ptr %5, align 8, !tbaa !23
  %20 = getelementptr inbounds nuw %"struct.vas::KalmanFilterNoOpencv::kalmanfilter1d32i", ptr %19, i32 0, i32 5
  %21 = getelementptr inbounds [2 x i32], ptr %20, i64 0, i64 0
  %22 = getelementptr inbounds [2 x [2 x float]], ptr %7, i64 0, i64 0
  %23 = load ptr, ptr %5, align 8, !tbaa !23
  %24 = getelementptr inbounds nuw %"struct.vas::KalmanFilterNoOpencv::kalmanfilter1d32i", ptr %23, i32 0, i32 0
  %25 = getelementptr inbounds [2 x i32], ptr %24, i64 0, i64 0
  call void @_ZN3vasL14mul_matvec_32fEPiPA2_fS0_(ptr noundef %21, ptr noundef %22, ptr noundef %25)
  %26 = getelementptr inbounds [2 x [2 x i32]], ptr %9, i64 0, i64 0
  %27 = getelementptr inbounds [2 x [2 x float]], ptr %8, i64 0, i64 0
  %28 = load ptr, ptr %5, align 8, !tbaa !23
  %29 = getelementptr inbounds nuw %"struct.vas::KalmanFilterNoOpencv::kalmanfilter1d32i", ptr %28, i32 0, i32 1
  %30 = getelementptr inbounds [2 x [2 x i32]], ptr %29, i64 0, i64 0
  call void @_ZN3vasL14mul_matmat_32fEPA2_iPA2_fS1_(ptr noundef %26, ptr noundef %27, ptr noundef %30)
  %31 = getelementptr inbounds [2 x [2 x i32]], ptr %10, i64 0, i64 0
  %32 = getelementptr inbounds [2 x [2 x i32]], ptr %9, i64 0, i64 0
  %33 = getelementptr inbounds [2 x [2 x float]], ptr %8, i64 0, i64 0
  call void @_ZN3vasL15mul_matmatT_32fEPA2_iS1_PA2_f(ptr noundef %31, ptr noundef %32, ptr noundef %33)
  %34 = load ptr, ptr %5, align 8, !tbaa !23
  %35 = getelementptr inbounds nuw %"struct.vas::KalmanFilterNoOpencv::kalmanfilter1d32i", ptr %34, i32 0, i32 4
  %36 = getelementptr inbounds [2 x [2 x i32]], ptr %35, i64 0, i64 0
  %37 = getelementptr inbounds [2 x [2 x i32]], ptr %10, i64 0, i64 0
  %38 = load ptr, ptr %5, align 8, !tbaa !23
  %39 = getelementptr inbounds nuw %"struct.vas::KalmanFilterNoOpencv::kalmanfilter1d32i", ptr %38, i32 0, i32 2
  %40 = getelementptr inbounds [2 x [2 x i32]], ptr %39, i64 0, i64 0
  call void @_ZN3vasL14add_matmat_32iEPA2_iS1_S1_(ptr noundef %36, ptr noundef %37, ptr noundef %40)
  %41 = load ptr, ptr %5, align 8, !tbaa !23
  %42 = getelementptr inbounds nuw %"struct.vas::KalmanFilterNoOpencv::kalmanfilter1d32i", ptr %41, i32 0, i32 5
  %43 = getelementptr inbounds [2 x i32], ptr %42, i64 0, i64 0
  %44 = load i32, ptr %43, align 4, !tbaa !17
  %45 = load ptr, ptr %5, align 8, !tbaa !23
  %46 = getelementptr inbounds nuw %"struct.vas::KalmanFilterNoOpencv::kalmanfilter1d32i", ptr %45, i32 0, i32 0
  %47 = getelementptr inbounds [2 x i32], ptr %46, i64 0, i64 0
  store i32 %44, ptr %47, align 4, !tbaa !17
  %48 = load ptr, ptr %5, align 8, !tbaa !23
  %49 = getelementptr inbounds nuw %"struct.vas::KalmanFilterNoOpencv::kalmanfilter1d32i", ptr %48, i32 0, i32 5
  %50 = getelementptr inbounds [2 x i32], ptr %49, i64 0, i64 1
  %51 = load i32, ptr %50, align 4, !tbaa !17
  %52 = load ptr, ptr %5, align 8, !tbaa !23
  %53 = getelementptr inbounds nuw %"struct.vas::KalmanFilterNoOpencv::kalmanfilter1d32i", ptr %52, i32 0, i32 0
  %54 = getelementptr inbounds [2 x i32], ptr %53, i64 0, i64 1
  store i32 %51, ptr %54, align 4, !tbaa !17
  %55 = load ptr, ptr %5, align 8, !tbaa !23
  %56 = getelementptr inbounds nuw %"struct.vas::KalmanFilterNoOpencv::kalmanfilter1d32i", ptr %55, i32 0, i32 4
  %57 = getelementptr inbounds [2 x [2 x i32]], ptr %56, i64 0, i64 0
  %58 = getelementptr inbounds [2 x i32], ptr %57, i64 0, i64 0
  %59 = load i32, ptr %58, align 4, !tbaa !17
  %60 = load ptr, ptr %5, align 8, !tbaa !23
  %61 = getelementptr inbounds nuw %"struct.vas::KalmanFilterNoOpencv::kalmanfilter1d32i", ptr %60, i32 0, i32 1
  %62 = getelementptr inbounds [2 x [2 x i32]], ptr %61, i64 0, i64 0
  %63 = getelementptr inbounds [2 x i32], ptr %62, i64 0, i64 0
  store i32 %59, ptr %63, align 4, !tbaa !17
  %64 = load ptr, ptr %5, align 8, !tbaa !23
  %65 = getelementptr inbounds nuw %"struct.vas::KalmanFilterNoOpencv::kalmanfilter1d32i", ptr %64, i32 0, i32 4
  %66 = getelementptr inbounds [2 x [2 x i32]], ptr %65, i64 0, i64 0
  %67 = getelementptr inbounds [2 x i32], ptr %66, i64 0, i64 1
  %68 = load i32, ptr %67, align 4, !tbaa !17
  %69 = load ptr, ptr %5, align 8, !tbaa !23
  %70 = getelementptr inbounds nuw %"struct.vas::KalmanFilterNoOpencv::kalmanfilter1d32i", ptr %69, i32 0, i32 1
  %71 = getelementptr inbounds [2 x [2 x i32]], ptr %70, i64 0, i64 0
  %72 = getelementptr inbounds [2 x i32], ptr %71, i64 0, i64 1
  store i32 %68, ptr %72, align 4, !tbaa !17
  %73 = load ptr, ptr %5, align 8, !tbaa !23
  %74 = getelementptr inbounds nuw %"struct.vas::KalmanFilterNoOpencv::kalmanfilter1d32i", ptr %73, i32 0, i32 4
  %75 = getelementptr inbounds [2 x [2 x i32]], ptr %74, i64 0, i64 1
  %76 = getelementptr inbounds [2 x i32], ptr %75, i64 0, i64 0
  %77 = load i32, ptr %76, align 4, !tbaa !17
  %78 = load ptr, ptr %5, align 8, !tbaa !23
  %79 = getelementptr inbounds nuw %"struct.vas::KalmanFilterNoOpencv::kalmanfilter1d32i", ptr %78, i32 0, i32 1
  %80 = getelementptr inbounds [2 x [2 x i32]], ptr %79, i64 0, i64 1
  %81 = getelementptr inbounds [2 x i32], ptr %80, i64 0, i64 0
  store i32 %77, ptr %81, align 4, !tbaa !17
  %82 = load ptr, ptr %5, align 8, !tbaa !23
  %83 = getelementptr inbounds nuw %"struct.vas::KalmanFilterNoOpencv::kalmanfilter1d32i", ptr %82, i32 0, i32 4
  %84 = getelementptr inbounds [2 x [2 x i32]], ptr %83, i64 0, i64 1
  %85 = getelementptr inbounds [2 x i32], ptr %84, i64 0, i64 1
  %86 = load i32, ptr %85, align 4, !tbaa !17
  %87 = load ptr, ptr %5, align 8, !tbaa !23
  %88 = getelementptr inbounds nuw %"struct.vas::KalmanFilterNoOpencv::kalmanfilter1d32i", ptr %87, i32 0, i32 1
  %89 = getelementptr inbounds [2 x [2 x i32]], ptr %88, i64 0, i64 1
  %90 = getelementptr inbounds [2 x i32], ptr %89, i64 0, i64 1
  store i32 %86, ptr %90, align 4, !tbaa !17
  call void @llvm.lifetime.end.p0(i64 4, ptr %12) #7
  call void @llvm.lifetime.end.p0(i64 4, ptr %11) #7
  call void @llvm.lifetime.end.p0(i64 16, ptr %10) #7
  call void @llvm.lifetime.end.p0(i64 16, ptr %9) #7
  call void @llvm.lifetime.end.p0(i64 16, ptr %8) #7
  call void @llvm.lifetime.end.p0(i64 16, ptr %7) #7
  ret void
}