; Function Attrs: mustprogress nofree norecurse nosync nounwind willreturn memory(argmem: readwrite) uwtable
define hidden void @_ZN3vas20KalmanFilterNoOpencv31kalmanfilter1d32i_predict_phaseEPNS0_17kalmanfilter1d32iEf(ptr noundef nonnull readnone align 4 captures(none) dereferenceable(284) %0, ptr noundef captures(none) initializes((44, 68)) %1, float noundef %2) local_unnamed_addr #0 align 2 {
  %4 = fmul float %2, 8.000000e+00
  %5 = getelementptr inbounds nuw i8, ptr %1, i64 60
  %6 = load i32, ptr %1, align 4, !tbaa !15
  %7 = sitofp i32 %6 to float
  %8 = getelementptr inbounds nuw i8, ptr %1, i64 4
  %9 = load i32, ptr %8, align 4, !tbaa !15
  %10 = sitofp i32 %9 to float
  %11 = fmul float %4, %10
  %12 = fadd float %11, %7
  %13 = fptosi float %12 to i32
  store i32 %13, ptr %5, align 4, !tbaa !15
  %14 = tail call float @llvm.fmuladd.f32(float %7, float 0.000000e+00, float %10)
  %15 = fptosi float %14 to i32
  %16 = getelementptr inbounds nuw i8, ptr %1, i64 64
  store i32 %15, ptr %16, align 4, !tbaa !15
  %17 = getelementptr inbounds nuw i8, ptr %1, i64 8
  %18 = load i32, ptr %17, align 4, !tbaa !15
  %19 = sitofp i32 %18 to float
  %20 = getelementptr inbounds nuw i8, ptr %1, i64 16
  %21 = load i32, ptr %20, align 4, !tbaa !15
  %22 = sitofp i32 %21 to float
  %23 = fadd float %19, %22
  %24 = fptosi float %23 to i32
  %25 = getelementptr inbounds nuw i8, ptr %1, i64 12
  %26 = load i32, ptr %25, align 4, !tbaa !15
  %27 = sitofp i32 %26 to float
  %28 = getelementptr inbounds nuw i8, ptr %1, i64 20
  %29 = load i32, ptr %28, align 4, !tbaa !15
  %30 = sitofp i32 %29 to float
  %31 = fadd float %27, %30
  %32 = fptosi float %31 to i32
  %33 = fptosi float %22 to i32
  %34 = fptosi float %30 to i32
  %35 = sitofp i32 %24 to float
  %36 = sitofp i32 %32 to float
  %37 = fadd float %35, %36
  %38 = fptosi float %37 to i32
  %39 = tail call float @llvm.fmuladd.f32(float %35, float 0.000000e+00, float %36)
  %40 = fptosi float %39 to i32
  %41 = sitofp i32 %33 to float
  %42 = sitofp i32 %34 to float
  %43 = fadd float %41, %42
  %44 = fptosi float %43 to i32
  %45 = tail call float @llvm.fmuladd.f32(float %41, float 0.000000e+00, float %42)
  %46 = fptosi float %45 to i32
  %47 = getelementptr inbounds nuw i8, ptr %1, i64 44
  %48 = getelementptr inbounds nuw i8, ptr %1, i64 24
  %49 = load i32, ptr %48, align 4, !tbaa !15
  %50 = add nsw i32 %49, %38
  store i32 %50, ptr %47, align 4, !tbaa !15
  %51 = getelementptr inbounds nuw i8, ptr %1, i64 28
  %52 = load i32, ptr %51, align 4, !tbaa !15
  %53 = add nsw i32 %52, %40
  %54 = getelementptr inbounds nuw i8, ptr %1, i64 48
  store i32 %53, ptr %54, align 4, !tbaa !15
  %55 = getelementptr inbounds nuw i8, ptr %1, i64 32
  %56 = load i32, ptr %55, align 4, !tbaa !15
  %57 = add nsw i32 %56, %44
  %58 = getelementptr inbounds nuw i8, ptr %1, i64 52
  store i32 %57, ptr %58, align 4, !tbaa !15
  %59 = getelementptr inbounds nuw i8, ptr %1, i64 36
  %60 = load i32, ptr %59, align 4, !tbaa !15
  %61 = add nsw i32 %60, %46
  %62 = getelementptr inbounds nuw i8, ptr %1, i64 56
  store i32 %61, ptr %62, align 4, !tbaa !15
  store i32 %13, ptr %1, align 4, !tbaa !15
  store i32 %15, ptr %8, align 4, !tbaa !15
  store i32 %50, ptr %17, align 4, !tbaa !15
  store i32 %53, ptr %25, align 4, !tbaa !15
  store i32 %57, ptr %20, align 4, !tbaa !15
  store i32 %61, ptr %28, align 4, !tbaa !15
  ret void
}